target datalayout = "e-m:e-p270:32:32-p271:32:32-p272:64:64-i64:64-i128:128-f80:128-n8:16:32:64-S128"
target triple = "x86_64-pc-linux-gnu"

%struct.rb_uniform_sort_data = type { i64, i64 }

; Function Attrs: inlinehint nounwind sspstrong willreturn memory(none) uwtable
define internal zeroext i1 @RB_FIXNUM_P(i64 noundef %0) #6 {
  %2 = alloca i64, align 8
  store i64 %0, ptr %2, align 8, !tbaa !14
  %3 = load i64, ptr %2, align 8, !tbaa !14
  %4 = and i64 %3, 1
  %5 = icmp ne i64 %4, 0
  ret i1 %5
}

; Function Attrs: inlinehint nounwind sspstrong uwtable
define internal zeroext i1 @rb_uniform_is_less(i64 noundef %0, i64 noundef %1) #3 {
  %3 = alloca i1, align 1
  %4 = alloca i64, align 8
  %5 = alloca i64, align 8
  store i64 %0, ptr %4, align 8, !tbaa !14
  store i64 %1, ptr %5, align 8, !tbaa !14
  %6 = load i64, ptr %4, align 8, !tbaa !14
  %7 = call zeroext i1 @RB_FIXNUM_P(i64 noundef %6) #25
  br i1 %7, label %8, label %15

8:                                                ; preds = %2
  %9 = load i64, ptr %5, align 8, !tbaa !14
  %10 = call zeroext i1 @RB_FIXNUM_P(i64 noundef %9) #25
  br i1 %10, label %11, label %15

11:                                               ; preds = %8
  %12 = load i64, ptr %4, align 8, !tbaa !14
  %13 = load i64, ptr %5, align 8, !tbaa !14
  %14 = icmp slt i64 %12, %13
  store i1 %14, ptr %3, align 1
  br label %28

15:                                               ; preds = %8, %2
  %16 = load i64, ptr %4, align 8, !tbaa !14
  %17 = call zeroext i1 @RB_FIXNUM_P(i64 noundef %16) #25
  br i1 %17, label %18, label %23

18:                                               ; preds = %15
  %19 = load i64, ptr %5, align 8, !tbaa !14
  %20 = load i64, ptr %4, align 8, !tbaa !14
  %21 = call i32 @rb_float_cmp(i64 noundef %19, i64 noundef %20)
  %22 = icmp sgt i32 %21, 0
  store i1 %22, ptr %3, align 1
  br label %28

23:                                               ; preds = %15
  %24 = load i64, ptr %4, align 8, !tbaa !14
  %25 = load i64, ptr %5, align 8, !tbaa !14
  %26 = call i32 @rb_float_cmp(i64 noundef %24, i64 noundef %25)
  %27 = icmp slt i32 %26, 0
  store i1 %27, ptr %3, align 1
  br label %28

28:                                               ; preds = %23, %18, %11
  %29 = load i1, ptr %3, align 1
  ret i1 %29
}

; Function Attrs: inlinehint nounwind sspstrong uwtable
define internal void @rb_uniform_heap_down_2(ptr noundef %0, i64 noundef %1, i64 noundef %2) #3 {
  %4 = alloca ptr, align 8
  %5 = alloca i64, align 8
  %6 = alloca i64, align 8
  %7 = alloca i64, align 8
  %8 = alloca %struct.rb_uniform_sort_data, align 8
  store ptr %0, ptr %4, align 8, !tbaa !89
  store i64 %1, ptr %5, align 8, !tbaa !14
  store i64 %2, ptr %6, align 8, !tbaa !14
  call void @llvm.lifetime.start.p0(i64 8, ptr %7) #22
  call void @llvm.lifetime.start.p0(i64 16, ptr %8) #22
  %9 = load ptr, ptr %4, align 8, !tbaa !89
  %10 = load i64, ptr %5, align 8, !tbaa !14
  %11 = getelementptr %struct.rb_uniform_sort_data, ptr %9, i64 %10
  call void @llvm.memcpy.p0.p0.i64(ptr align 8 %8, ptr align 8 %11, i64 16, i1 false), !tbaa.struct !100
  br label %12

12:                                               ; preds = %48, %3
  %13 = load i64, ptr %5, align 8, !tbaa !14
  %14 = shl i64 %13, 1
  %15 = add i64 %14, 1
  store i64 %15, ptr %7, align 8, !tbaa !14
  %16 = load i64, ptr %6, align 8, !tbaa !14
  %17 = icmp ule i64 %15, %16
  br i1 %17, label %18, label %56

18:                                               ; preds = %12
  %19 = load i64, ptr %7, align 8, !tbaa !14
  %20 = load i64, ptr %6, align 8, !tbaa !14
  %21 = icmp ult i64 %19, %20
  br i1 %21, label %22, label %38

22:                                               ; preds = %18
  %23 = load ptr, ptr %4, align 8, !tbaa !89
  %24 = load i64, ptr %7, align 8, !tbaa !14
  %25 = getelementptr %struct.rb_uniform_sort_data, ptr %23, i64 %24
  %26 = getelementptr inbounds nuw %struct.rb_uniform_sort_data, ptr %25, i32 0, i32 0
  %27 = load i64, ptr %26, align 8, !tbaa !93
  %28 = load ptr, ptr %4, align 8, !tbaa !89
  %29 = load i64, ptr %7, align 8, !tbaa !14
  %30 = add i64 %29, 1
  %31 = getelementptr %struct.rb_uniform_sort_data, ptr %28, i64 %30
  %32 = getelementptr inbounds nuw %struct.rb_uniform_sort_data, ptr %31, i32 0, i32 0
  %33 = load i64, ptr %32, align 8, !tbaa !93
  %34 = call zeroext i1 @rb_uniform_is_less(i64 noundef %27, i64 noundef %33)
  br i1 %34, label %35, label %38

35:                                               ; preds = %22
  %36 = load i64, ptr %7, align 8, !tbaa !14
  %37 = add i64 %36, 1
  store i64 %37, ptr %7, align 8, !tbaa !14
  br label %38

38:                                               ; preds = %35, %22, %18
  %39 = getelementptr inbounds nuw %struct.rb_uniform_sort_data, ptr %8, i32 0, i32 0
  %40 = load i64, ptr %39, align 8, !tbaa !93
  %41 = load ptr, ptr %4, align 8, !tbaa !89
  %42 = load i64, ptr %7, align 8, !tbaa !14
  %43 = getelementptr %struct.rb_uniform_sort_data, ptr %41, i64 %42
  %44 = getelementptr inbounds nuw %struct.rb_uniform_sort_data, ptr %43, i32 0, i32 0
  %45 = load i64, ptr %44, align 8, !tbaa !93
  %46 = call zeroext i1 @rb_uniform_is_less(i64 noundef %40, i64 noundef %45)
  br i1 %46, label %48, label %47

47:                                               ; preds = %38
  br label %56

48:                                               ; preds = %38
  %49 = load ptr, ptr %4, align 8, !tbaa !89
  %50 = load i64, ptr %5, align 8, !tbaa !14
  %51 = getelementptr %struct.rb_uniform_sort_data, ptr %49, i64 %50
  %52 = load ptr, ptr %4, align 8, !tbaa !89
  %53 = load i64, ptr %7, align 8, !tbaa !14
  %54 = getelementptr %struct.rb_uniform_sort_data, ptr %52, i64 %53
  call void @llvm.memcpy.p0.p0.i64(ptr align 8 %51, ptr align 8 %54, i64 16, i1 false), !tbaa.struct !100
  %55 = load i64, ptr %7, align 8, !tbaa !14
  store i64 %55, ptr %5, align 8, !tbaa !14
  br label %12, !llvm.loop !107

56:                                               ; preds = %47, %12
  %57 = load ptr, ptr %4, align 8, !tbaa !89
  %58 = load i64, ptr %5, align 8, !tbaa !14
  %59 = getelementptr %struct.rb_uniform_sort_data, ptr %57, i64 %58
  call void @llvm.memcpy.p0.p0.i64(ptr align 8 %59, ptr align 8 %8, i64 16, i1 false), !tbaa.struct !100
  call void @llvm.lifetime.end.p0(i64 16, ptr %8) #22
  call void @llvm.lifetime.end.p0(i64 8, ptr %7) #22
  ret void
}