; Function Attrs: inlinehint nounwind sspstrong uwtable
define internal fastcc void @rb_uniform_heap_down_2(ptr noundef captures(none) %0, i64 noundef range(i64 0, 9223372036854775807) %1, i64 noundef %2) unnamed_addr #7 {
  %4 = getelementptr %struct.rb_uniform_sort_data, ptr %0, i64 %1
  %.sroa.0.0.copyload = load i64, ptr %4, align 8, !tbaa !7
  %.sroa.0.0.copyload.fr = freeze i64 %.sroa.0.0.copyload
  %.sroa.5.0..sroa_idx = getelementptr inbounds nuw i8, ptr %4, i64 8
  %.sroa.5.0.copyload = load i64, ptr %.sroa.5.0..sroa_idx, align 8, !tbaa !7
  %5 = shl nuw i64 %1, 1
  %.not.not30 = icmp ult i64 %5, %2
  br i1 %.not.not30, label %.lr.ph, label %._crit_edge

.lr.ph:                                           ; preds = %3
  %6 = or disjoint i64 %5, 1
  %7 = and i64 %.sroa.0.0.copyload.fr, 1
  %.not.i25 = icmp eq i64 %7, 0
  br i1 %.not.i25, label %.lr.ph.split.us, label %.lr.ph.split

.lr.ph.split.us:                                  ; preds = %.lr.ph, %31
  %8 = phi i64 [ %34, %31 ], [ %6, %.lr.ph ]
  %9 = phi i64 [ %33, %31 ], [ %5, %.lr.ph ]
  %.031.us = phi i64 [ %.022.us, %31 ], [ %1, %.lr.ph ]
  %10 = icmp ult i64 %8, %2
  br i1 %10, label %11, label %rb_uniform_is_less.exit29.us

11:                                               ; preds = %.lr.ph.split.us
  %12 = getelementptr %struct.rb_uniform_sort_data, ptr %0, i64 %8
  %13 = load i64, ptr %12, align 8, !tbaa !53
  %14 = add nuw i64 %9, 2
  %15 = getelementptr %struct.rb_uniform_sort_data, ptr %0, i64 %14
  %16 = load i64, ptr %15, align 8, !tbaa !53
  %17 = and i64 %13, 1
  %.not.i.us = icmp eq i64 %17, 0
  br i1 %.not.i.us, label %.critedge.i.us, label %18

18:                                               ; preds = %11
  %19 = and i64 %16, 1
  %.not9.i.us = icmp eq i64 %19, 0
  br i1 %.not9.i.us, label %22, label %20

20:                                               ; preds = %18
  %21 = icmp slt i64 %13, %16
  br label %rb_uniform_is_less.exit.us

22:                                               ; preds = %18
  %23 = tail call i32 @rb_float_cmp(i64 noundef %16, i64 noundef %13) #14
  %24 = icmp sgt i32 %23, 0
  br label %rb_uniform_is_less.exit.us

.critedge.i.us:                                   ; preds = %11
  %25 = tail call i32 @rb_float_cmp(i64 noundef %13, i64 noundef %16) #14
  %26 = icmp slt i32 %25, 0
  br label %rb_uniform_is_less.exit.us

rb_uniform_is_less.exit.us:                       ; preds = %.critedge.i.us, %22, %20
  %.0.i.us = phi i1 [ %21, %20 ], [ %24, %22 ], [ %26, %.critedge.i.us ]
  %spec.select.us = select i1 %.0.i.us, i64 %14, i64 %8
  br label %rb_uniform_is_less.exit29.us

rb_uniform_is_less.exit29.us:                     ; preds = %rb_uniform_is_less.exit.us, %.lr.ph.split.us
  %.022.us = phi i64 [ %8, %.lr.ph.split.us ], [ %spec.select.us, %rb_uniform_is_less.exit.us ]
  %27 = getelementptr %struct.rb_uniform_sort_data, ptr %0, i64 %.022.us
  %28 = load i64, ptr %27, align 8, !tbaa !53
  %29 = tail call i32 @rb_float_cmp(i64 noundef %.sroa.0.0.copyload.fr, i64 noundef %28) #14
  %30 = icmp slt i32 %29, 0
  br i1 %30, label %31, label %._crit_edge

31:                                               ; preds = %rb_uniform_is_less.exit29.us
  %32 = getelementptr %struct.rb_uniform_sort_data, ptr %0, i64 %.031.us
  tail call void @llvm.memcpy.p0.p0.i64(ptr noundef nonnull align 8 dereferenceable(16) %32, ptr noundef nonnull align 8 dereferenceable(16) %27, i64 16, i1 false), !tbaa.struct !103
  %33 = shl i64 %.022.us, 1
  %34 = or disjoint i64 %33, 1
  %.not.not.us = icmp ult i64 %33, %2
  br i1 %.not.not.us, label %.lr.ph.split.us, label %._crit_edge, !llvm.loop !112

.lr.ph.split:                                     ; preds = %.lr.ph, %63
  %35 = phi i64 [ %66, %63 ], [ %6, %.lr.ph ]
  %36 = phi i64 [ %65, %63 ], [ %5, %.lr.ph ]
  %.031 = phi i64 [ %.022, %63 ], [ %1, %.lr.ph ]
  %37 = icmp ult i64 %35, %2
  br i1 %37, label %38, label %54

38:                                               ; preds = %.lr.ph.split
  %39 = getelementptr %struct.rb_uniform_sort_data, ptr %0, i64 %35
  %40 = load i64, ptr %39, align 8, !tbaa !53
  %41 = add nuw i64 %36, 2
  %42 = getelementptr %struct.rb_uniform_sort_data, ptr %0, i64 %41
  %43 = load i64, ptr %42, align 8, !tbaa !53
  %44 = and i64 %40, 1
  %.not.i = icmp eq i64 %44, 0
  br i1 %.not.i, label %.critedge.i, label %45

45:                                               ; preds = %38
  %46 = and i64 %43, 1
  %.not9.i = icmp eq i64 %46, 0
  br i1 %.not9.i, label %49, label %47

47:                                               ; preds = %45
  %48 = icmp slt i64 %40, %43
  br label %rb_uniform_is_less.exit

49:                                               ; preds = %45
  %50 = tail call i32 @rb_float_cmp(i64 noundef %43, i64 noundef %40) #14
  %51 = icmp sgt i32 %50, 0
  br label %rb_uniform_is_less.exit

.critedge.i:                                      ; preds = %38
  %52 = tail call i32 @rb_float_cmp(i64 noundef %40, i64 noundef %43) #14
  %53 = icmp slt i32 %52, 0
  br label %rb_uniform_is_less.exit

rb_uniform_is_less.exit:                          ; preds = %47, %49, %.critedge.i
  %.0.i = phi i1 [ %48, %47 ], [ %51, %49 ], [ %53, %.critedge.i ]
  %spec.select = select i1 %.0.i, i64 %41, i64 %35
  br label %54

54:                                               ; preds = %rb_uniform_is_less.exit, %.lr.ph.split
  %.022 = phi i64 [ %35, %.lr.ph.split ], [ %spec.select, %rb_uniform_is_less.exit ]
  %55 = getelementptr %struct.rb_uniform_sort_data, ptr %0, i64 %.022
  %56 = load i64, ptr %55, align 8, !tbaa !53
  %57 = and i64 %56, 1
  %.not9.i26 = icmp eq i64 %57, 0
  br i1 %.not9.i26, label %60, label %58

58:                                               ; preds = %54
  %59 = icmp slt i64 %.sroa.0.0.copyload.fr, %56
  br i1 %59, label %63, label %._crit_edge

60:                                               ; preds = %54
  %61 = tail call i32 @rb_float_cmp(i64 noundef %56, i64 noundef %.sroa.0.0.copyload.fr) #14
  %62 = icmp sgt i32 %61, 0
  br i1 %62, label %63, label %._crit_edge

63:                                               ; preds = %60, %58
  %64 = getelementptr %struct.rb_uniform_sort_data, ptr %0, i64 %.031
  tail call void @llvm.memcpy.p0.p0.i64(ptr noundef nonnull align 8 dereferenceable(16) %64, ptr noundef nonnull align 8 dereferenceable(16) %55, i64 16, i1 false), !tbaa.struct !103
  %65 = shl i64 %.022, 1
  %66 = or disjoint i64 %65, 1
  %.not.not = icmp ult i64 %65, %2
  br i1 %.not.not, label %.lr.ph.split, label %._crit_edge, !llvm.loop !112

._crit_edge:                                      ; preds = %63, %58, %60, %31, %rb_uniform_is_less.exit29.us, %3
  %.0.lcssa = phi i64 [ %1, %3 ], [ %.031.us, %rb_uniform_is_less.exit29.us ], [ %.022.us, %31 ], [ %.031, %60 ], [ %.031, %58 ], [ %.022, %63 ]
  %67 = getelementptr %struct.rb_uniform_sort_data, ptr %0, i64 %.0.lcssa
  store i64 %.sroa.0.0.copyload.fr, ptr %67, align 8, !tbaa !7
  %.sroa.5.0..sroa_idx2 = getelementptr inbounds nuw i8, ptr %67, i64 8
  store i64 %.sroa.5.0.copyload, ptr %.sroa.5.0..sroa_idx2, align 8, !tbaa !7
  ret void
}